target datalayout = "e-m:e-p270:32:32-p271:32:32-p272:64:64-i64:64-i128:128-f80:128-n8:16:32:64-S128"
target triple = "x86_64-pc-linux-gnu"

%struct.SDL_AtomicInt = type { i32 }
%struct.VulkanRenderer = type { ptr, ptr, %struct.VkPhysicalDeviceProperties2, %struct.VkPhysicalDeviceDriverProperties, %struct.VkPhysicalDeviceFeatures, ptr, i8, i8, i8, i8, i8, i8, i32, i32, %struct.VulkanExtensions, i8, i8, i8, i8, ptr, %struct.VkPhysicalDeviceMemoryProperties, i8, ptr, i32, i32, i32, ptr, ptr, i32, i32, %struct.VulkanFencePool, ptr, ptr, ptr, ptr, ptr, ptr, ptr, i32, i32, ptr, i32, i32, %struct.SDL_AtomicInt, i32, ptr, i32, i32, ptr, i32, i32, ptr, i32, i32, ptr, i32, i32, ptr, i32, i32, ptr, i32, i32, ptr, i32, i32, ptr, ptr, ptr, ptr, ptr, ptr, ptr, ptr, ptr, ptr, ptr, i8, ptr, i32, i32, ptr, ptr, ptr, ptr, ptr, ptr, ptr, ptr, ptr, ptr, ptr, ptr, ptr, ptr, ptr, ptr, ptr, ptr, ptr, ptr, ptr, ptr, ptr, ptr, ptr, ptr, ptr, ptr, ptr, ptr, ptr, ptr, ptr, ptr, ptr, ptr, ptr, ptr, ptr, ptr, ptr, ptr, ptr, ptr, ptr, ptr, ptr, ptr, ptr, ptr, ptr, ptr, ptr, ptr, ptr, ptr, ptr, ptr, ptr, ptr, ptr, ptr, ptr, ptr, ptr, ptr, ptr, ptr, ptr, ptr, ptr, ptr, ptr, ptr, ptr, ptr, ptr, ptr, ptr, ptr, ptr, ptr, ptr, ptr, ptr, ptr, ptr, ptr, ptr, ptr, ptr, ptr, ptr, ptr, ptr, ptr, ptr, ptr, ptr, ptr, ptr, ptr, ptr, ptr, ptr, ptr, ptr, ptr, ptr, ptr }
%struct.VkPhysicalDeviceProperties2 = type { i32, ptr, %struct.VkPhysicalDeviceProperties }
%struct.VkPhysicalDeviceProperties = type { i32, i32, i32, i32, i32, [256 x i8], [16 x i8], %struct.VkPhysicalDeviceLimits, %struct.VkPhysicalDeviceSparseProperties }
%struct.VkPhysicalDeviceLimits = type { i32, i32, i32, i32, i32, i32, i32, i32, i32, i32, i32, i64, i64, i32, i32, i32, i32, i32, i32, i32, i32, i32, i32, i32, i32, i32, i32, i32, i32, i32, i32, i32, i32, i32, i32, i32, i32, i32, i32, i32, i32, i32, i32, i32, i32, i32, i32, i32, i32, i32, i32, i32, [3 x i32], i32, [3 x i32], i32, i32, i32, i32, i32, float, float, i32, [2 x i32], [2 x float], i32, i64, i64, i64, i64, i32, i32, i32, i32, float, float, i32, i32, i32, i32, i32, i32, i32, i32, i32, i32, i32, i32, i32, i32, i32, i32, float, i32, i32, i32, i32, [2 x float], [2 x float], float, float, i32, i32, i64, i64, i64 }
%struct.VkPhysicalDeviceSparseProperties = type { i32, i32, i32, i32, i32 }
%struct.VkPhysicalDeviceDriverProperties = type { i32, ptr, i32, [256 x i8], [256 x i8], %struct.VkConformanceVersion }
%struct.VkConformanceVersion = type { i8, i8, i8, i8 }
%struct.VkPhysicalDeviceFeatures = type { i32, i32, i32, i32, i32, i32, i32, i32, i32, i32, i32, i32, i32, i32, i32, i32, i32, i32, i32, i32, i32, i32, i32, i32, i32, i32, i32, i32, i32, i32, i32, i32, i32, i32, i32, i32, i32, i32, i32, i32, i32, i32, i32, i32, i32, i32, i32, i32, i32, i32, i32, i32, i32, i32, i32 }
%struct.VulkanExtensions = type { i8, i8, i8, i8, i8 }
%struct.VkPhysicalDeviceMemoryProperties = type { i32, [32 x %struct.VkMemoryType], i32, [16 x %struct.VkMemoryHeap] }
%struct.VkMemoryType = type { i32, i32 }
%struct.VkMemoryHeap = type { i64, i32 }
%struct.VulkanFencePool = type { ptr, ptr, i32, i32 }
%struct.VulkanComputePipelineResourceLayout = type { ptr, [3 x ptr], i32, i32, i32, i32, i32, i32 }

; Function Attrs: nounwind uwtable
define internal void @VULKAN_INTERNAL_DestroyComputePipelineResourceLayout(ptr noundef %0, ptr noundef %1) #0 {
  %3 = alloca ptr, align 8
  %4 = alloca ptr, align 8
  store ptr %0, ptr %3, align 8
  store ptr %1, ptr %4, align 8
  %5 = load ptr, ptr %4, align 8
  %6 = getelementptr inbounds nuw %struct.VulkanComputePipelineResourceLayout, ptr %5, i32 0, i32 0
  %7 = load ptr, ptr %6, align 8
  %8 = icmp ne ptr %7, null
  br i1 %8, label %9, label %19

9:                                                ; preds = %2
  %10 = load ptr, ptr %3, align 8
  %11 = getelementptr inbounds nuw %struct.VulkanRenderer, ptr %10, i32 0, i32 162
  %12 = load ptr, ptr %11, align 8
  %13 = load ptr, ptr %3, align 8
  %14 = getelementptr inbounds nuw %struct.VulkanRenderer, ptr %13, i32 0, i32 5
  %15 = load ptr, ptr %14, align 8
  %16 = load ptr, ptr %4, align 8
  %17 = getelementptr inbounds nuw %struct.VulkanComputePipelineResourceLayout, ptr %16, i32 0, i32 0
  %18 = load ptr, ptr %17, align 8
  call void %12(ptr noundef %15, ptr noundef %18, ptr noundef null)
  br label %19

19:                                               ; preds = %9, %2
  %20 = load ptr, ptr %4, align 8
  call void @SDL_free_REAL(ptr noundef %20)
  ret void
}

; Function Attrs: nounwind uwtable
define internal void @VULKAN_INTERNAL_ComputePipelineResourceLayoutHashDestroy(ptr noundef %0, ptr noundef %1, ptr noundef %2) #0 {
  %4 = alloca ptr, align 8
  %5 = alloca ptr, align 8
  %6 = alloca ptr, align 8
  %7 = alloca ptr, align 8
  %8 = alloca ptr, align 8
  store ptr %0, ptr %4, align 8
  store ptr %1, ptr %5, align 8
  store ptr %2, ptr %6, align 8
  call void @llvm.lifetime.start.p0(i64 8, ptr %7) #9
  %9 = load ptr, ptr %4, align 8
  store ptr %9, ptr %7, align 8
  call void @llvm.lifetime.start.p0(i64 8, ptr %8) #9
  %10 = load ptr, ptr %6, align 8
  store ptr %10, ptr %8, align 8
  %11 = load ptr, ptr %7, align 8
  %12 = load ptr, ptr %8, align 8
  call void @VULKAN_INTERNAL_DestroyComputePipelineResourceLayout(ptr noundef %11, ptr noundef %12)
  %13 = load ptr, ptr %5, align 8
  call void @SDL_free_REAL(ptr noundef %13)
  call void @llvm.lifetime.end.p0(i64 8, ptr %8) #9
  call void @llvm.lifetime.end.p0(i64 8, ptr %7) #9
  ret void
}