; Function Attrs: nounwind uwtable
define internal void @VULKAN_INTERNAL_ComputePipelineResourceLayoutHashDestroy(ptr noundef readonly captures(none) %0, ptr noundef %1, ptr noundef %2) #0 {
  %4 = load ptr, ptr %2, align 8
  %.not.i = icmp eq ptr %4, null
  br i1 %.not.i, label %VULKAN_INTERNAL_DestroyComputePipelineResourceLayout.exit, label %5

5:                                                ; preds = %3
  %6 = getelementptr inbounds nuw i8, ptr %0, i64 3224
  %7 = load ptr, ptr %6, align 8
  %8 = getelementptr inbounds nuw i8, ptr %0, i64 1616
  %9 = load ptr, ptr %8, align 8
  tail call void %7(ptr noundef %9, ptr noundef nonnull %4, ptr noundef null) #13
  br label %VULKAN_INTERNAL_DestroyComputePipelineResourceLayout.exit

VULKAN_INTERNAL_DestroyComputePipelineResourceLayout.exit: ; preds = %3, %5
  tail call void @SDL_free_REAL(ptr noundef nonnull %2) #13
  tail call void @SDL_free_REAL(ptr noundef %1) #13
  ret void
}